target datalayout = "e-m:e-p270:32:32-p271:32:32-p272:64:64-i64:64-i128:128-f80:128-n8:16:32:64-S128"
target triple = "x86_64-pc-linux-gnu"

; Function Attrs: mustprogress nounwind uwtable
define void @u_versionFromString_77(ptr noundef %0, ptr noundef %1) #0 {
  %3 = alloca ptr, align 8
  %4 = alloca ptr, align 8
  %5 = alloca ptr, align 8
  %6 = alloca i16, align 2
  %7 = alloca i32, align 4
  store ptr %0, ptr %3, align 8, !tbaa !17
  store ptr %1, ptr %4, align 8, !tbaa !17
  call void @llvm.lifetime.start.p0(i64 8, ptr %5) #14
  call void @llvm.lifetime.start.p0(i64 2, ptr %6) #14
  store i16 0, ptr %6, align 2, !tbaa !72
  %8 = load ptr, ptr %3, align 8, !tbaa !17
  %9 = icmp eq ptr %8, null
  br i1 %9, label %10, label %11

10:                                               ; preds = %2
  store i32 1, ptr %7, align 4
  br label %53

11:                                               ; preds = %2
  %12 = load ptr, ptr %4, align 8, !tbaa !17
  %13 = icmp ne ptr %12, null
  br i1 %13, label %14, label %41

14:                                               ; preds = %11
  br label %15

15:                                               ; preds = %37, %14
  %16 = load ptr, ptr %4, align 8, !tbaa !17
  %17 = call i64 @strtoul(ptr noundef %16, ptr noundef %5, i32 noundef 10) #14
  %18 = trunc i64 %17 to i8
  %19 = load ptr, ptr %3, align 8, !tbaa !17
  %20 = load i16, ptr %6, align 2, !tbaa !72
  %21 = zext i16 %20 to i64
  %22 = getelementptr inbounds nuw i8, ptr %19, i64 %21
  store i8 %18, ptr %22, align 1, !tbaa !28
  %23 = load ptr, ptr %5, align 8, !tbaa !17
  %24 = load ptr, ptr %4, align 8, !tbaa !17
  %25 = icmp eq ptr %23, %24
  br i1 %25, label %36, label %26

26:                                               ; preds = %15
  %27 = load i16, ptr %6, align 2, !tbaa !72
  %28 = add i16 %27, 1
  store i16 %28, ptr %6, align 2, !tbaa !72
  %29 = zext i16 %28 to i32
  %30 = icmp eq i32 %29, 4
  br i1 %30, label %36, label %31

31:                                               ; preds = %26
  %32 = load ptr, ptr %5, align 8, !tbaa !17
  %33 = load i8, ptr %32, align 1, !tbaa !28
  %34 = sext i8 %33 to i32
  %35 = icmp ne i32 %34, 46
  br i1 %35, label %36, label %37

36:                                               ; preds = %31, %26, %15
  br label %40

37:                                               ; preds = %31
  %38 = load ptr, ptr %5, align 8, !tbaa !17
  %39 = getelementptr inbounds i8, ptr %38, i64 1
  store ptr %39, ptr %4, align 8, !tbaa !17
  br label %15, !llvm.loop !74

40:                                               ; preds = %36
  br label %41

41:                                               ; preds = %40, %11
  br label %42

42:                                               ; preds = %46, %41
  %43 = load i16, ptr %6, align 2, !tbaa !72
  %44 = zext i16 %43 to i32
  %45 = icmp slt i32 %44, 4
  br i1 %45, label %46, label %52

46:                                               ; preds = %42
  %47 = load ptr, ptr %3, align 8, !tbaa !17
  %48 = load i16, ptr %6, align 2, !tbaa !72
  %49 = add i16 %48, 1
  store i16 %49, ptr %6, align 2, !tbaa !72
  %50 = zext i16 %48 to i64
  %51 = getelementptr inbounds nuw i8, ptr %47, i64 %50
  store i8 0, ptr %51, align 1, !tbaa !28
  br label %42, !llvm.loop !75

52:                                               ; preds = %42
  store i32 0, ptr %7, align 4
  br label %53

53:                                               ; preds = %52, %10
  call void @llvm.lifetime.end.p0(i64 2, ptr %6) #14
  call void @llvm.lifetime.end.p0(i64 8, ptr %5) #14
  %54 = load i32, ptr %7, align 4
  switch i32 %54, label %56 [
    i32 0, label %55
    i32 1, label %55
  ]

55:                                               ; preds = %53, %53
  ret void

56:                                               ; preds = %53
  unreachable
}

; Function Attrs: mustprogress uwtable
define void @u_versionFromUString_77(ptr noundef %0, ptr noundef %1) #1 {
  %3 = alloca ptr, align 8
  %4 = alloca ptr, align 8
  %5 = alloca [21 x i8], align 16
  %6 = alloca i32, align 4
  store ptr %0, ptr %3, align 8, !tbaa !17
  store ptr %1, ptr %4, align 8, !tbaa !76
  %7 = load ptr, ptr %3, align 8, !tbaa !17
  %8 = icmp ne ptr %7, null
  br i1 %8, label %9, label %27

9:                                                ; preds = %2
  %10 = load ptr, ptr %4, align 8, !tbaa !76
  %11 = icmp ne ptr %10, null
  br i1 %11, label %12, label %27

12:                                               ; preds = %9
  call void @llvm.lifetime.start.p0(i64 21, ptr %5) #14
  call void @llvm.lifetime.start.p0(i64 4, ptr %6) #14
  %13 = load ptr, ptr %4, align 8, !tbaa !76
  %14 = call i32 @u_strlen_77(ptr noundef %13)
  store i32 %14, ptr %6, align 4, !tbaa !14
  %15 = load i32, ptr %6, align 4, !tbaa !14
  %16 = icmp sgt i32 %15, 20
  br i1 %16, label %17, label %18

17:                                               ; preds = %12
  store i32 20, ptr %6, align 4, !tbaa !14
  br label %18

18:                                               ; preds = %17, %12
  %19 = load ptr, ptr %4, align 8, !tbaa !76
  %20 = getelementptr inbounds [21 x i8], ptr %5, i64 0, i64 0
  %21 = load i32, ptr %6, align 4, !tbaa !14
  call void @u_UCharsToChars_77(ptr noundef %19, ptr noundef %20, i32 noundef %21)
  %22 = load i32, ptr %6, align 4, !tbaa !14
  %23 = sext i32 %22 to i64
  %24 = getelementptr inbounds [21 x i8], ptr %5, i64 0, i64 %23
  store i8 0, ptr %24, align 1, !tbaa !28
  %25 = load ptr, ptr %3, align 8, !tbaa !17
  %26 = getelementptr inbounds [21 x i8], ptr %5, i64 0, i64 0
  call void @u_versionFromString_77(ptr noundef %25, ptr noundef %26)
  call void @llvm.lifetime.end.p0(i64 4, ptr %6) #14
  call void @llvm.lifetime.end.p0(i64 21, ptr %5) #14
  br label %27

27:                                               ; preds = %18, %9, %2
  ret void
}