; Function Attrs: mustprogress uwtable
define void @u_versionFromUString_77(ptr noundef writeonly %0, ptr noundef %1) local_unnamed_addr #1 {
  %3 = alloca ptr, align 8
  %4 = alloca [21 x i8], align 16
  %5 = icmp ne ptr %0, null
  %6 = icmp ne ptr %1, null
  %or.cond = and i1 %5, %6
  br i1 %or.cond, label %7, label %30

7:                                                ; preds = %2
  call void @llvm.lifetime.start.p0(i64 21, ptr nonnull %4) #32
  %8 = tail call i32 @u_strlen_77(ptr noundef nonnull %1)
  %spec.store.select = tail call i32 @llvm.smin.i32(i32 %8, i32 20)
  call void @u_UCharsToChars_77(ptr noundef nonnull %1, ptr noundef nonnull %4, i32 noundef %spec.store.select)
  %9 = sext i32 %spec.store.select to i64
  %10 = getelementptr inbounds [21 x i8], ptr %4, i64 0, i64 %9
  store i8 0, ptr %10, align 1, !tbaa !21
  call void @llvm.lifetime.start.p0(i64 8, ptr nonnull %3) #32
  %11 = call i64 @strtoul(ptr noundef nonnull %4, ptr noundef nonnull %3, i32 noundef 10) #32
  %12 = trunc i64 %11 to i8
  store i8 %12, ptr %0, align 1, !tbaa !21
  %13 = load ptr, ptr %3, align 8, !tbaa !20
  %14 = icmp eq ptr %13, %4
  br i1 %14, label %.lr.ph21.preheader.i, label %.lr.ph.i

15:                                               ; preds = %24
  %16 = getelementptr inbounds nuw i8, ptr %22, i64 1
  %17 = call i64 @strtoul(ptr noundef nonnull %16, ptr noundef nonnull %3, i32 noundef 10) #32
  %18 = trunc i64 %17 to i8
  %19 = getelementptr inbounds nuw i8, ptr %0, i64 %indvars.iv.next.i
  store i8 %18, ptr %19, align 1, !tbaa !21
  %20 = load ptr, ptr %3, align 8, !tbaa !20
  %21 = icmp eq ptr %20, %16
  br i1 %21, label %.loopexit14.i, label %.lr.ph.i, !llvm.loop !49

.lr.ph.i:                                         ; preds = %7, %15
  %indvars.iv.i = phi i64 [ %indvars.iv.next.i, %15 ], [ 0, %7 ]
  %22 = phi ptr [ %20, %15 ], [ %13, %7 ]
  %indvars.iv.next.i = add nuw nsw i64 %indvars.iv.i, 1
  %23 = icmp eq i64 %indvars.iv.next.i, 4
  br i1 %23, label %u_versionFromString_77.exit, label %24

24:                                               ; preds = %.lr.ph.i
  %25 = load i8, ptr %22, align 1, !tbaa !21
  %.not13.i = icmp eq i8 %25, 46
  br i1 %.not13.i, label %15, label %.loopexit14.i

.loopexit14.i:                                    ; preds = %24, %15
  %26 = trunc nuw nsw i64 %indvars.iv.next.i to i16
  %27 = icmp samesign ult i64 %indvars.iv.i, 3
  br i1 %27, label %.lr.ph21.preheader.i, label %u_versionFromString_77.exit

.lr.ph21.preheader.i:                             ; preds = %.loopexit14.i, %7
  %.027.i = phi i16 [ %26, %.loopexit14.i ], [ 0, %7 ]
  %28 = zext nneg i16 %.027.i to i64
  %scevgep.i = getelementptr i8, ptr %0, i64 %28
  %narrow.i = sub nuw nsw i16 4, %.027.i
  %29 = zext nneg i16 %narrow.i to i64
  call void @llvm.memset.p0.i64(ptr align 1 %scevgep.i, i8 0, i64 %29, i1 false), !tbaa !21
  br label %u_versionFromString_77.exit

u_versionFromString_77.exit:                      ; preds = %.lr.ph.i, %.loopexit14.i, %.lr.ph21.preheader.i
  call void @llvm.lifetime.end.p0(i64 8, ptr nonnull %3) #32
  call void @llvm.lifetime.end.p0(i64 21, ptr nonnull %4) #32
  br label %30

30:                                               ; preds = %u_versionFromString_77.exit, %2
  ret void
}